	.file	"zad4.c"
	.text
	.globl	min
	.type	min, @function
min:
.LFB2:
	.cfi_startproc
	pushq	%rbp
	.cfi_def_cfa_offset 16
	.cfi_offset 6, -16
	movq	%rsp, %rbp
	.cfi_def_cfa_register 6
	subq	$32, %rsp
	movq	%rdi, -24(%rbp)
	movl	%esi, -28(%rbp)
	movl	%edx, -32(%rbp)
	movl	-28(%rbp), %eax
	cmpl	-32(%rbp), %eax
	jne	.L2
	movl	-28(%rbp), %eax
	cltq
	leaq	0(,%rax,4), %rdx
	movq	-24(%rbp), %rax
	addq	%rdx, %rax
	movl	(%rax), %eax
	jmp	.L3
.L2:
	movl	-28(%rbp), %edx
	movl	-32(%rbp), %eax
	addl	%edx, %eax
	movl	%eax, %edx
	shrl	$31, %edx
	addl	%edx, %eax
	sarl	%eax
	movl	%eax, %edx
	movl	-28(%rbp), %ecx
	movq	-24(%rbp), %rax
	movl	%ecx, %esi
	movq	%rax, %rdi
	call	min
	movl	%eax, -8(%rbp)
	movl	-28(%rbp), %edx
	movl	-32(%rbp), %eax
	addl	%edx, %eax
	movl	%eax, %edx
	shrl	$31, %edx
	addl	%edx, %eax
	sarl	%eax
	leal	1(%rax), %ecx
	movl	-32(%rbp), %edx
	movq	-24(%rbp), %rax
	movl	%ecx, %esi
	movq	%rax, %rdi
	call	min
	movl	%eax, -4(%rbp)
	movl	-8(%rbp), %eax
	cmpl	-4(%rbp), %eax
	jge	.L4
	movl	-8(%rbp), %eax
	jmp	.L3
.L4:
	movl	-4(%rbp), %eax
.L3:
	leave
	.cfi_def_cfa 7, 8
	ret
	.cfi_endproc
.LFE2:
	.size	min, .-min
	.section	.rodata
.LC0:
	.string	"%d"
	.text
	.globl	main
	.type	main, @function
main:
.LFB3:
	.cfi_startproc
	pushq	%rbp
	.cfi_def_cfa_offset 16
	.cfi_offset 6, -16
	movq	%rsp, %rbp
	.cfi_def_cfa_register 6
	subq	$48, %rsp
	movq	%fs:40, %rax
	movq	%rax, -8(%rbp)
	xorl	%eax, %eax
	movl	$4, -48(%rbp)
	movl	$5, -44(%rbp)
	movl	$6, -40(%rbp)
	movl	$7, -36(%rbp)
	movl	$8, -32(%rbp)
	movl	$9, -28(%rbp)
	movl	$-100, -24(%rbp)
	movl	$88, -20(%rbp)
	movl	$55, -16(%rbp)
	movl	$33, -12(%rbp)
	leaq	-48(%rbp), %rax
	movl	$9, %edx
	movl	$0, %esi
	movq	%rax, %rdi
	call	min
	movl	%eax, %esi
	movl	$.LC0, %edi
	movl	$0, %eax
	call	printf
	movl	$0, %eax
	movq	-8(%rbp), %rcx
	xorq	%fs:40, %rcx
	je	.L7
	call	__stack_chk_fail
.L7:
	leave
	.cfi_def_cfa 7, 8
	ret
	.cfi_endproc
.LFE3:
	.size	main, .-main
	.ident	"GCC: (Ubuntu 5.2.1-22ubuntu2) 5.2.1 20151010"
	.section	.note.GNU-stack,"",@progbits
